(lp0
(dp1
S'telslat'
p2
S'38:40:23.95'
p3
sS'scfactor'
p4
F0.72185299999999997
sS'combinum'
p5
I-1
sS'ncombine'
p6
I3
sS'date'
p7
S'2006-12-31'
p8
sS'imgname'
p9
S'combibynight_medcoeff1_2006-12-31'
p10
sS'gain'
p11
F1.0
sS'telslon'
p12
S'66:53:47.07'
p13
sS'rdnoise'
p14
F4.7000000000000002
sS'jd'
p15
F2454100.5375930001
sS'telsele'
p16
F2593.0
sS'pixsize'
p17
F0.26600000000000001
sS'exptime'
p18
F1800.0
sS'listcoeff'
p19
(lp20
F0.78337370864800004
aF0.77710988378300005
aF0.78220276835000002
asS'skylevel'
p21
F1562.1239318839998
sa(dp22
g2
S'38:40:23.95'
p23
sg4
F0.72185299999999997
sg5
I-2
sg6
I3
sg7
S'2007-01-17'
p24
sg9
S'combibynight_medcoeff1_2007-01-17'
p25
sg11
F1.0
sg12
S'66:53:47.07'
p26
sg14
F4.7000000000000002
sg15
F2454117.517037
sg16
F2593.0
sg17
F0.26600000000000001
sg18
F1800.0
sg19
(lp27
F0.94274372879699997
aF1.3499383599599999
aF1.2698906267900001
asg21
F1963.051086427
sa(dp28
g2
S'38:40:23.95'
p29
sg4
F0.72185299999999997
sg5
I-3
sg6
I3
sg7
S'2007-04-11'
p30
sg9
S'combibynight_medcoeff1_2007-04-11'
p31
sg11
F1.0
sg12
S'66:53:47.07'
p32
sg14
F4.7000000000000002
sg15
F2454202.329988
sg16
F2593.0
sg17
F0.26600000000000001
sg18
F1800.0
sg19
(lp33
F0.94184522070099996
aF0.92644792874199999
aF0.93188453141100003
asg21
F1504.7359313970001
sa(dp34
g2
S'38:40:23.95'
p35
sg4
F0.72185299999999997
sg5
I-4
sg6
I3
sg7
S'2007-04-17'
p36
sg9
S'combibynight_medcoeff1_2007-04-17'
p37
sg11
F1.0
sg12
S'66:53:47.07'
p38
sg14
F4.7000000000000002
sg15
F2454208.3320599999
sg16
F2593.0
sg17
F0.26600000000000001
sg18
F1800.0
sg19
(lp39
F0.94231290291699998
aF0.87188551755800003
aF0.87078324968200005
asg21
F1387.4002990720001
sa(dp40
g2
S'38:40:23.95'
p41
sg4
F0.72185299999999997
sg5
I-5
sg6
I3
sg7
S'2007-04-20'
p42
sg9
S'combibynight_medcoeff1_2007-04-20'
p43
sg11
F1.0
sg12
S'66:53:47.07'
p44
sg14
F4.7000000000000002
sg15
F2454211.3141439999
sg16
F2593.0
sg17
F0.26600000000000001
sg18
F1800.0
sg19
(lp45
F0.94352491344
aF1.0160845107400001
aF1.1134845370699999
asg21
F1046.994812012
sa(dp46
g2
S'38:40:23.95'
p47
sg4
F0.72185299999999997
sg5
I-6
sg6
I3
sg7
S'2007-04-24'
p48
sg9
S'combibynight_medcoeff1_2007-04-24'
p49
sg11
F1.0
sg12
S'66:53:47.07'
p50
sg14
F4.7000000000000002
sg15
F2454215.2614810001
sg16
F2593.0
sg17
F0.26600000000000001
sg18
F1800.0
sg19
(lp51
F0.84519142712200002
aF0.83316775051199998
aF0.84664216302899997
asg21
F4611.6649169900002
sa(dp52
g2
S'38:40:23.95'
p53
sg4
F0.72185299999999997
sg5
I-7
sg6
I6
sg7
S'2007-05-05'
p54
sg9
S'combibynight_medcoeff1_2007-05-05'
p55
sg11
F1.0
sg12
S'66:53:47.07'
p56
sg14
F4.7000000000000002
sg15
F2454226.3326389999
sg16
F2593.0
sg17
F0.26600000000000001
sg18
F1800.0
sg19
(lp57
F2.0418627572100001
aF2.05774449332
aF2.06113757448
aF2.0568125089799998
aF2.0776099602300002
aF2.0979681853800001
asg21
F7491.6893310599999
sa(dp58
g2
S'38:40:23.95'
p59
sg4
F0.72185299999999997
sg5
I-8
sg6
I3
sg7
S'2007-05-08'
p60
sg9
S'combibynight_medcoeff1_2007-05-08'
p61
sg11
F1.0
sg12
S'66:53:47.07'
p62
sg14
F4.7000000000000002
sg15
F2454229.3283560001
sg16
F2593.0
sg17
F0.26600000000000001
sg18
F1800.0
sg19
(lp63
F0.853806283991
aF0.86984374811499998
aF0.86602984485099999
asg21
F1604.41204834
sa(dp64
g2
S'38:40:23.95'
p65
sg4
F0.72185299999999997
sg5
I-9
sg6
I3
sg7
S'2007-05-13'
p66
sg9
S'combibynight_medcoeff1_2007-05-13'
p67
sg11
F1.0
sg12
S'66:53:47.07'
p68
sg14
F4.7000000000000002
sg15
F2454234.305799
sg16
F2593.0
sg17
F0.26600000000000001
sg18
F1800.0
sg19
(lp69
F0.93973548709599997
aF0.93668872077900001
aF0.95822256138299999
asg21
F1584.074218751
sa(dp70
g2
S'38:40:23.95'
p71
sg4
F0.72185299999999997
sg5
I-10
sg6
I6
sg7
S'2007-05-28'
p72
sg9
S'combibynight_medcoeff1_2007-05-28'
p73
sg11
F1.0
sg12
S'66:53:47.07'
p74
sg14
F4.7000000000000002
sg15
F2454249.2811690001
sg16
F2593.0
sg17
F0.26600000000000001
sg18
F1800.0
sg19
(lp75
F1.77239096763
aF1.7952975502799999
aF1.7487387027700001
aF1.79710709434
aF1.78545571102
aF1.7876135479799999
asg21
F8992.7185058499999
sa(dp76
g2
S'38:40:23.95'
p77
sg4
F0.72185299999999997
sg5
I-11
sg6
I3
sg7
S'2007-06-10'
p78
sg9
S'combibynight_medcoeff1_2007-06-10'
p79
sg11
F1.0
sg12
S'66:53:47.07'
p80
sg14
F4.7000000000000002
sg15
F2454262.2812959999
sg16
F2593.0
sg17
F0.26600000000000001
sg18
F1800.0
sg19
(lp81
F0.97339789124099996
aF0.98626557639599999
aF1.0
asg21
F1483.7816467289999
sa(dp82
g2
S'38:40:23.95'
p83
sg4
F0.72185299999999997
sg5
I-12
sg6
I10
sg7
S'2007-08-13'
p84
sg9
S'combibynight_medcoeff1_2007-08-13'
p85
sg11
F1.0
sg12
S'66:53:47.07'
p86
sg14
F4.7000000000000002
sg15
F2454326.1532410001
sg16
F2593.0
sg17
F0.26600000000000001
sg18
F1800.0
sg19
(lp87
F4.0649044081000003
aF4.32943038281
aF4.0191917835000002
aF4.2764869357400004
aF4.0630023401699997
aF4.4263775792800004
aF4.1010938692099996
aF4.19144456091
aF4.3278802899800004
aF4.2720386490199997
asg21
F4164.161605835
sa(dp88
g2
S'38:40:23.95'
p89
sg4
F0.72185299999999997
sg5
I-13
sg6
I4
sg7
S'2007-08-21'
p90
sg9
S'combibynight_medcoeff1_2007-08-21'
p91
sg11
F1.0
sg12
S'66:53:47.07'
p92
sg14
F4.7000000000000002
sg15
F2454334.167928
sg16
F2593.0
sg17
F0.26600000000000001
sg18
F720.0
sg19
(lp93
F5.1743683949200001
aF6.7625298899599997
aF7.4092408374499996
aF9.0749630699099999
asg21
F2675.6482543949996
sa(dp94
g2
S'38:40:23.95'
p95
sg4
F0.72185299999999997
sg5
I-14
sg6
I3
sg7
S'2007-08-22'
p96
sg9
S'combibynight_medcoeff1_2007-08-22'
p97
sg11
F1.0
sg12
S'66:53:47.07'
p98
sg14
F4.7000000000000002
sg15
F2454335.1428820002
sg16
F2593.0
sg17
F0.26600000000000001
sg18
F1800.0
sg19
(lp99
F1.3054504201699999
aF1.3294969833300001
aF1.36996670247
asg21
F9161.1469726600008
sa(dp100
g2
S'38:40:23.95'
p101
sg4
F0.72185299999999997
sg5
I-15
sg6
I3
sg7
S'2007-08-24'
p102
sg9
S'combibynight_medcoeff1_2007-08-24'
p103
sg11
F1.0
sg12
S'66:53:47.07'
p104
sg14
F4.7000000000000002
sg15
F2454337.1558329999
sg16
F2593.0
sg17
F0.26600000000000001
sg18
F1800.0
sg19
(lp105
F1.4128963371700001
aF1.76650018252
aF3.3922079144100001
asg21
F11769.41357422
sa(dp106
g2
S'38:40:23.95'
p107
sg4
F0.72185299999999997
sg5
I-16
sg6
I3
sg7
S'2007-08-26'
p108
sg9
S'combibynight_medcoeff1_2007-08-26'
p109
sg11
F1.0
sg12
S'66:53:47.07'
p110
sg14
F4.7000000000000002
sg15
F2454339.1433680002
sg16
F2593.0
sg17
F0.26600000000000001
sg18
F1800.0
sg19
(lp111
F1.37751334951
aF1.4289791424
aF1.9684119899200001
asg21
F19432.055664060001
sa(dp112
g2
S'38:40:23.95'
p113
sg4
F0.72185299999999997
sg5
I-17
sg6
I5
sg7
S'2004-11-23'
p114
sg9
S'combibynight_medcoeff1_2004-11-23'
p115
sg11
F1.0
sg12
S'66:53:47.07'
p116
sg14
F5.2999999999999998
sg15
F2453332.536146
sg16
F2593.0
sg17
F0.26600000000000001
sg18
F1500.0
sg19
(lp117
F2.3488197203399999
aF2.32792678671
aF2.31155795477
aF2.2986967587199998
aF2.3893466918800002
asg21
F2304.6046142570003
sa(dp118
g2
S'38:40:23.95'
p119
sg4
F0.72185299999999997
sg5
I-18
sg6
I6
sg7
S'2005-01-16'
p120
sg9
S'combibynight_medcoeff1_2005-01-16'
p121
sg11
F1.0
sg12
S'66:53:47.07'
p122
sg14
F5.2999999999999998
sg15
F2453386.506852
sg16
F2593.0
sg17
F0.26600000000000001
sg18
F1800.0
sg19
(lp123
F2.3740804667400002
aF2.3811620680700001
aF2.4001379893100001
aF2.3873981408799998
aF2.3017401424299999
aF2.28232922271
asg21
F2453.6893615720001
sa(dp124
g2
S'38:40:23.95'
p125
sg4
F0.72185299999999997
sg5
I-19
sg6
I6
sg7
S'2005-01-18'
p126
sg9
S'combibynight_medcoeff1_2005-01-18'
p127
sg11
F1.0
sg12
S'66:53:47.07'
p128
sg14
F5.2999999999999998
sg15
F2453389.4757520002
sg16
F2593.0
sg17
F0.26600000000000001
sg18
F1800.0
sg19
(lp129
F2.3071913858999999
aF2.3739794148
aF2.3764260499000001
aF2.3895944541
aF2.3399744098099999
aF2.3728650135199998
asg21
F2463.7543945309999
sa(dp130
g2
S'38:40:23.95'
p131
sg4
F0.72185299999999997
sg5
I-20
sg6
I6
sg7
S'2005-02-14'
p132
sg9
S'combibynight_medcoeff1_2005-02-14'
p133
sg11
F1.0
sg12
S'66:53:47.07'
p134
sg14
F5.2999999999999998
sg15
F2453416.4191439999
sg16
F2593.0
sg17
F0.26600000000000001
sg18
F1800.0
sg19
(lp135
F2.5497611889399998
aF2.5578313826799999
aF2.5211882699800001
aF2.4159688745999999
aF2.6103823101099999
aF2.46390096884
asg21
F1986.224548339
sa(dp136
g2
S'38:40:23.95'
p137
sg4
F0.72185299999999997
sg5
I-21
sg6
I7
sg7
S'2005-02-19'
p138
sg9
S'combibynight_medcoeff1_2005-02-19'
p139
sg11
F1.0
sg12
S'66:53:47.07'
p140
sg14
F5.2999999999999998
sg15
F2453421.413623
sg16
F2593.0
sg17
F0.26600000000000001
sg18
F2100.0
sg19
(lp141
F2.2052323628799999
aF2.2301733913500001
aF2.26429779393
aF2.2066939099199998
aF2.2284085996299998
aF2.24629908527
aF2.2339620757
asg21
F11050.64318848
sa(dp142
g2
S'38:40:23.95'
p143
sg4
F0.72185299999999997
sg5
I-22
sg6
I6
sg7
S'2005-02-27'
p144
sg9
S'combibynight_medcoeff1_2005-02-27'
p145
sg11
F1.0
sg12
S'66:53:47.07'
p146
sg14
F5.2999999999999998
sg15
F2453429.447222
sg16
F2593.0
sg17
F0.26600000000000001
sg18
F1800.0
sg19
(lp147
F2.2937227227700001
aF2.3264078069899998
aF2.3143410740000001
aF2.3076465608299999
aF2.3265299712799998
aF2.2895467941600001
asg21
F10337.90466308
sa(dp148
g2
S'38:40:23.95'
p149
sg4
F0.72185299999999997
sg5
I-23
sg6
I6
sg7
S'2005-03-01'
p150
sg9
S'combibynight_medcoeff1_2005-03-01'
p151
sg11
F1.0
sg12
S'66:53:47.07'
p152
sg14
F5.2999999999999998
sg15
F2453431.448229
sg16
F2593.0
sg17
F0.26600000000000001
sg18
F1800.0
sg19
(lp153
F2.32310981525
aF2.3362091292099998
aF2.3330925870199999
aF2.3424461298499999
aF2.3325285959199999
aF2.3297058157700001
asg21
F5198.7926635749991
sa(dp154
g2
S'38:40:23.95'
p155
sg4
F0.72185299999999997
sg5
I-24
sg6
I5
sg7
S'2005-03-05'
p156
sg9
S'combibynight_medcoeff1_2005-03-05'
p157
sg11
F1.0
sg12
S'66:53:47.07'
p158
sg14
F5.2999999999999998
sg15
F2453435.4363079998
sg16
F2593.0
sg17
F0.26600000000000001
sg18
F1500.0
sg19
(lp159
F3.8043384753299998
aF4.7614363910300002
aF3.52362814455
aF3.1151232519500001
aF5.1401115558299999
asg21
F1857.1681518550001
sa(dp160
g2
S'38:40:23.95'
p161
sg4
F0.72185299999999997
sg5
I-25
sg6
I6
sg7
S'2005-05-29'
p162
sg9
S'combibynight_medcoeff1_2005-05-29'
p163
sg11
F1.0
sg12
S'66:53:47.07'
p164
sg14
F5.2999999999999998
sg15
F2453520.2779979999
sg16
F2593.0
sg17
F0.26600000000000001
sg18
F1800.0
sg19
(lp165
F2.4481599603099999
aF2.4753634939400002
aF2.5284198610100002
aF2.5324154594000001
aF2.5424637456500001
aF2.5475080270900001
asg21
F3014.8841857910002
sa(dp166
g2
S'38:40:23.95'
p167
sg4
F0.72185299999999997
sg5
I-26
sg6
I6
sg7
S'2005-06-14'
p168
sg9
S'combibynight_medcoeff1_2005-06-14'
p169
sg11
F1.0
sg12
S'66:53:47.07'
p170
sg14
F5.2999999999999998
sg15
F2453536.1960069998
sg16
F2593.0
sg17
F0.26600000000000001
sg18
F1800.0
sg19
(lp171
F2.5881978002000001
aF2.53916373237
aF2.56360855965
aF2.56602443336
aF2.5275587434800002
aF2.50283836843
asg21
F5740.0494384669992
sa(dp172
g2
S'38:40:23.95'
p173
sg4
F0.72185299999999997
sg5
I-27
sg6
I6
sg7
S'2005-06-22'
p174
sg9
S'combibynight_medcoeff1_2005-06-22'
p175
sg11
F1.0
sg12
S'66:53:47.07'
p176
sg14
F5.2999999999999998
sg15
F2453544.1988309999
sg16
F2593.0
sg17
F0.26600000000000001
sg18
F1800.0
sg19
(lp177
F2.4134414401600002
aF2.42348595673
aF2.37363465947
aF2.4279664695299998
aF2.4498358486199998
aF2.4434416623900002
asg21
F13345.08483887
sa(dp178
g2
S'38:40:23.95'
p179
sg4
F0.72185299999999997
sg5
I-28
sg6
I5
sg7
S'2005-07-01'
p180
sg9
S'combibynight_medcoeff1_2005-07-01'
p181
sg11
F1.0
sg12
S'66:53:47.07'
p182
sg14
F5.2999999999999998
sg15
F2453553.1871870002
sg16
F2593.0
sg17
F0.26600000000000001
sg18
F1500.0
sg19
(lp183
F2.7714901280299999
aF2.8001042966699998
aF2.8006065434099998
aF2.8421232991799998
aF2.7859792462700002
asg21
F2265.5076599120002
sa(dp184
g2
S'38:40:23.95'
p185
sg4
F0.72185299999999997
sg5
I-29
sg6
I6
sg7
S'2005-12-24'
p186
sg9
S'combibynight_medcoeff1_2005-12-24'
p187
sg11
F1.0
sg12
S'66:53:47.07'
p188
sg14
F5.2999999999999998
sg15
F2453728.536748
sg16
F2593.0
sg17
F0.26600000000000001
sg18
F1800.0
sg19
(lp189
F1.2745072908999999
aF1.3764694844200001
aF1.3199580064500001
aF1.3065193886599999
aF1.30873835251
aF1.2446016553100001
asg21
F5765.0015869149993
sa(dp190
g2
S'38:40:23.95'
p191
sg4
F0.72185299999999997
sg5
I-30
sg6
I8
sg7
S'2006-01-23'
p192
sg9
S'combibynight_medcoeff1_2006-01-23'
p193
sg11
F1.0
sg12
S'66:53:47.07'
p194
sg14
F5.2999999999999998
sg15
F2453759.4685880002
sg16
F2593.0
sg17
F0.26600000000000001
sg18
F1440.0
sg19
(lp195
F3.4352548436100001
aF3.5179070021199998
aF3.0842248042899998
aF2.4541724862400001
aF2.3357561208900002
aF2.4437290912099998
aF2.53072638568
aF2.8999880833599998
asg21
F4035.0344543449996
sa(dp196
g2
S'38:40:23.95'
p197
sg4
F0.72185299999999997
sg5
I-31
sg6
I9
sg7
S'2006-02-03'
p198
sg9
S'combibynight_medcoeff1_2006-02-03'
p199
sg11
F1.0
sg12
S'66:53:47.07'
p200
sg14
F5.2999999999999998
sg15
F2453770.4030439998
sg16
F2593.0
sg17
F0.26600000000000001
sg18
F1620.0
sg19
(lp201
F2.4785181412699999
aF2.5830715515099998
aF2.5390924462500002
aF2.5233290726400002
aF2.5127465747
aF2.48806832578
aF2.5383167604899999
aF2.5402411015599999
aF2.4771884130699999
asg21
F1905.7960052499998
sa(dp202
g2
S'38:40:23.95'
p203
sg4
F0.72185299999999997
sg5
I-32
sg6
I10
sg7
S'2006-02-11'
p204
sg9
S'combibynight_medcoeff1_2006-02-11'
p205
sg11
F1.0
sg12
S'66:53:47.07'
p206
sg14
F5.2999999999999998
sg15
F2453778.4211459998
sg16
F2593.0
sg17
F0.26600000000000001
sg18
F1800.0
sg19
(lp207
F2.2841188579699998
aF2.32304652406
aF2.3219585675199998
aF2.33835290129
aF2.31150650911
aF2.3025802721500002
aF2.2534072106999998
aF2.3139052708199999
aF2.29113962531
aF2.3350914737299999
asg21
F21881.902954100002
sa(dp208
g2
S'38:40:23.95'
p209
sg4
F0.72185299999999997
sg5
I-33
sg6
I6
sg7
S'2006-02-21'
p210
sg9
S'combibynight_medcoeff1_2006-02-21'
p211
sg11
F1.0
sg12
S'66:53:47.07'
p212
sg14
F5.2999999999999998
sg15
F2453787.5011
sg16
F2593.0
sg17
F0.26600000000000001
sg18
F1800.0
sg19
(lp213
F1.3641728802599999
aF1.40707558174
aF1.46940029216
aF1.61362667583
aF1.45039140484
aF1.5499668476499999
asg21
F6253.4392089909998
sa(dp214
g2
S'38:40:23.95'
p215
sg4
F0.72185299999999997
sg5
I-34
sg6
I6
sg7
S'2006-02-26'
p216
sg9
S'combibynight_medcoeff1_2006-02-26'
p217
sg11
F1.0
sg12
S'66:53:47.07'
p218
sg14
F5.2999999999999998
sg15
F2453793.459051
sg16
F2593.0
sg17
F0.26600000000000001
sg18
F1800.0
sg19
(lp219
F1.56543002078
aF1.52713802501
aF1.6471290759099999
aF1.64515307462
aF1.6342800104899999
aF1.6691177107399999
asg21
F2976.0099487309999
sa(dp220
g2
S'38:40:23.95'
p221
sg4
F0.72185299999999997
sg5
I-35
sg6
I6
sg7
S'2006-03-07'
p222
sg9
S'combibynight_medcoeff1_2006-03-07'
p223
sg11
F1.0
sg12
S'66:53:47.07'
p224
sg14
F5.2999999999999998
sg15
F2453802.3519560001
sg16
F2593.0
sg17
F0.26600000000000001
sg18
F1800.0
sg19
(lp225
F1.45105863928
aF1.4425282637000001
aF1.43760775347
aF1.43797214784
aF1.42001312433
aF1.4440606255399999
asg21
F4260.3634643559999
sa(dp226
g2
S'38:40:23.95'
p227
sg4
F0.72185299999999997
sg5
I-36
sg6
I10
sg7
S'2006-03-11'
p228
sg9
S'combibynight_medcoeff1_2006-03-11'
p229
sg11
F1.0
sg12
S'66:53:47.07'
p230
sg14
F5.2999999999999998
sg15
F2453806.270579
sg16
F2593.0
sg17
F0.26600000000000001
sg18
F1800.0
sg19
(lp231
F2.3844859460799999
aF2.4025170403599998
aF2.46334034272
aF2.4299092550600001
aF2.3492093986899998
aF2.5300015117500001
aF2.5549566510399999
aF2.5176320112199999
aF2.38690031876
aF2.5097877746299999
asg21
F30139.345214849996
sa(dp232
g2
S'38:40:23.95'
p233
sg4
F0.72185299999999997
sg5
I-37
sg6
I10
sg7
S'2006-04-01'
p234
sg9
S'combibynight_medcoeff1_2006-04-01'
p235
sg11
F1.0
sg12
S'66:53:47.07'
p236
sg14
F5.2999999999999998
sg15
F2453827.3838769998
sg16
F2593.0
sg17
F0.26600000000000001
sg18
F1800.0
sg19
(lp237
F2.24956672748
aF2.3314211168200001
aF2.37743379561
aF2.4048778661600001
aF2.4007119612599999
aF2.39781897093
aF2.3136143497199999
aF2.38397655176
aF2.3399421773700002
aF2.3599358322600001
asg21
F2376.5211944580001
sa(dp238
g2
S'38:40:23.95'
p239
sg4
F0.72185299999999997
sg5
I-38
sg6
I10
sg7
S'2006-04-15'
p240
sg9
S'combibynight_medcoeff1_2006-04-15'
p241
sg11
F1.0
sg12
S'66:53:47.07'
p242
sg14
F5.2999999999999998
sg15
F2453841.3840049999
sg16
F2593.0
sg17
F0.26600000000000001
sg18
F1800.0
sg19
(lp243
F2.2644853044
aF2.2282328703999998
aF2.2503254023300001
aF2.2668385993000002
aF2.2995183455500001
aF2.37408562309
aF2.4317463640299999
aF2.3071011706100002
aF2.2304463906300001
aF2.2277361597100001
asg21
F14570.52441408
sa(dp244
g2
S'38:40:23.95'
p245
sg4
F0.72185299999999997
sg5
I-39
sg6
I10
sg7
S'2006-04-22'
p246
sg9
S'combibynight_medcoeff1_2006-04-22'
p247
sg11
F1.0
sg12
S'66:53:47.07'
p248
sg14
F5.2999999999999998
sg15
F2453848.3537960001
sg16
F2593.0
sg17
F0.26600000000000001
sg18
F1800.0
sg19
(lp249
F2.4813658811499999
aF2.5087823447700002
aF2.4889694767899999
aF2.7934626901900002
aF2.8786777043899998
aF2.8728280230599998
aF2.9400797677299999
aF2.84626573716
aF2.90689149491
aF3.1502984773799998
asg21
F3024.8156433110003
sa(dp250
g2
S'38:40:23.95'
p251
sg4
F0.72185299999999997
sg5
I-40
sg6
I10
sg7
S'2006-05-01'
p252
sg9
S'combibynight_medcoeff1_2006-05-01'
p253
sg11
F1.0
sg12
S'66:53:47.07'
p254
sg14
F5.2999999999999998
sg15
F2453857.3344100001
sg16
F2593.0
sg17
F0.26600000000000001
sg18
F1800.0
sg19
(lp255
F2.6806914077999999
aF2.7298894474300002
aF2.6929240390000002
aF2.7242532265300001
aF2.7291812013199999
aF2.7515334997399998
aF2.7471685628100002
aF2.74826210195
aF2.7523683707600002
aF2.7984314505399999
asg21
F2558.9701080320001
sa(dp256
g2
S'38:40:23.95'
p257
sg4
F0.72185299999999997
sg5
I-41
sg6
I7
sg7
S'2006-05-12'
p258
sg9
S'combibynight_medcoeff1_2006-05-12'
p259
sg11
F1.0
sg12
S'66:53:47.07'
p260
sg14
F5.2999999999999998
sg15
F2453868.2557060001
sg16
F2593.0
sg17
F0.26600000000000001
sg18
F1260.0
sg19
(lp261
F2.3387096406299999
aF2.57994877438
aF2.5578813080299998
aF2.56881779869
aF2.6242587696099999
aF2.6368566073999999
aF2.6060542566599998
asg21
F17587.202392589999
sa(dp262
g2
S'38:40:23.95'
p263
sg4
F0.72185299999999997
sg5
I-42
sg6
I10
sg7
S'2006-05-17'
p264
sg9
S'combibynight_medcoeff1_2006-05-17'
p265
sg11
F1.0
sg12
S'66:53:47.07'
p266
sg14
F5.2999999999999998
sg15
F2453873.304734
sg16
F2593.0
sg17
F0.26600000000000001
sg18
F1800.0
sg19
(lp267
F2.36920834418
aF2.2944015144800001
aF2.3255118455199999
aF2.3823504604800001
aF2.5496689563100001
aF2.4255766511600001
aF2.3723388502399998
aF2.4450037928600001
aF2.4445801122000002
aF2.4089088895500002
asg21
F5270.2538452150002
sa(dp268
g2
S'38:40:23.95'
p269
sg4
F0.72185299999999997
sg5
I-43
sg6
I10
sg7
S'2006-05-21'
p270
sg9
S'combibynight_medcoeff1_2006-05-21'
p271
sg11
F1.0
sg12
S'66:53:47.07'
p272
sg14
F5.2999999999999998
sg15
F2453877.3201970002
sg16
F2593.0
sg17
F0.26600000000000001
sg18
F1800.0
sg19
(lp273
F2.6893278511999998
aF2.4145551994500001
aF2.2552288842000001
aF3.30471793827
aF2.0310139124500002
aF2.0692451154999998
aF2.0178393196500002
aF2.3161993444900002
aF2.1637777518800001
aF2.2144271814200001
asg21
F2651.2861633290004
sa(dp274
g2
S'38:40:23.95'
p275
sg4
F0.72185299999999997
sg5
I-44
sg6
I2
sg7
S'2006-05-24'
p276
sg9
S'combibynight_medcoeff1_2006-05-24'
p277
sg11
F1.0
sg12
S'66:53:47.07'
p278
sg14
F5.2999999999999998
sg15
F2453880.2877890002
sg16
F2593.0
sg17
F0.26600000000000001
sg18
F360.0
sg19
(lp279
F4.5184852589900002
aF3.9029713267699999
asg21
F713.96191406200001
sa(dp280
g2
S'38:40:23.95'
p281
sg4
F0.72185299999999997
sg5
I-45
sg6
I10
sg7
S'2006-05-31'
p282
sg9
S'combibynight_medcoeff1_2006-05-31'
p283
sg11
F1.0
sg12
S'66:53:47.07'
p284
sg14
F5.2999999999999998
sg15
F2453887.2365509998
sg16
F2593.0
sg17
F0.26600000000000001
sg18
F1800.0
sg19
(lp285
F2.5865837542099999
aF2.50481062873
aF2.5223298642400001
aF2.2696925967300001
aF2.5858032833500002
aF2.5051185994799998
aF2.3431080532899999
aF2.6101128365199999
aF2.4446040727699998
aF2.5715174948900001
asg21
F3440.8038940439997
sa(dp286
g2
S'38:40:23.95'
p287
sg4
F0.72185299999999997
sg5
I-46
sg6
I10
sg7
S'2006-06-01'
p288
sg9
S'combibynight_medcoeff1_2006-06-01'
p289
sg11
F1.0
sg12
S'66:53:47.07'
p290
sg14
F5.2999999999999998
sg15
F2453888.1960189999
sg16
F2593.0
sg17
F0.26600000000000001
sg18
F1800.0
sg19
(lp291
F2.4906851488399999
aF2.4434068600800001
aF2.5701677515400001
aF2.3746720953299998
aF6.3595454019900002
aF2.4867831975499999
aF2.4936685915400001
aF6.6931040682100003
aF6.5450353688899998
aF6.5331984347600001
asg21
F4689.8042297350003
sa(dp292
g2
S'38:40:23.95'
p293
sg4
F0.72185299999999997
sg5
I-47
sg6
I10
sg7
S'2006-06-04'
p294
sg9
S'combibynight_medcoeff1_2006-06-04'
p295
sg11
F1.0
sg12
S'66:53:47.07'
p296
sg14
F5.2999999999999998
sg15
F2453891.2541899998
sg16
F2593.0
sg17
F0.26600000000000001
sg18
F1800.0
sg19
(lp297
F2.5995138179100001
aF2.6142347149399998
aF2.7403033965599999
aF3.1719400379799998
aF2.7179050309599999
aF2.6927536699500001
aF3.1417327391400001
aF2.5685614430300001
aF2.61835583978
aF2.8465131348899999
asg21
F9492.1852416990005
sa(dp298
g2
S'38:40:23.95'
p299
sg4
F0.72185299999999997
sg5
I-48
sg6
I10
sg7
S'2006-06-08'
p300
sg9
S'combibynight_medcoeff1_2006-06-08'
p301
sg11
F1.0
sg12
S'66:53:47.07'
p302
sg14
F5.2999999999999998
sg15
F2453895.2682520002
sg16
F2593.0
sg17
F0.26600000000000001
sg18
F1800.0
sg19
(lp303
F3.0176047114100002
aF2.4749740288500002
aF2.9261060372399998
aF2.50499483795
aF2.47549254748
aF2.8354948649099998
aF2.68616423375
aF2.5607971143400001
aF2.5662432929999999
aF2.9756526012300002
asg21
F14706.062255850002
sa(dp304
g2
S'38:40:23.95'
p305
sg4
F0.72185299999999997
sg5
I-49
sg6
I10
sg7
S'2006-06-13'
p306
sg9
S'combibynight_medcoeff1_2006-06-13'
p307
sg11
F1.0
sg12
S'66:53:47.07'
p308
sg14
F5.2999999999999998
sg15
F2453900.2457519998
sg16
F2593.0
sg17
F0.26600000000000001
sg18
F1620.0
sg19
(lp309
F2.8610541946699999
aF2.98023454427
aF2.76376883988
aF2.7119579283099999
aF2.7386595165599998
aF2.71584864655
aF2.78054772639
aF2.9062029016499999
aF2.8324943761900001
aF2.75470329403
asg21
F11274.07421875
sa(dp310
g2
S'38:40:23.95'
p311
sg4
F0.72185299999999997
sg5
I-50
sg6
I10
sg7
S'2006-06-17'
p312
sg9
S'combibynight_medcoeff1_2006-06-17'
p313
sg11
F1.0
sg12
S'66:53:47.07'
p314
sg14
F5.2999999999999998
sg15
F2453904.2565390002
sg16
F2593.0
sg17
F0.26600000000000001
sg18
F1800.0
sg19
(lp315
F2.6069364894899998
aF2.56723769732
aF2.7204972665899998
aF2.5485555771800001
aF2.6201186427800001
aF2.6876543505799999
aF2.6470763295199999
aF2.6357909156099999
aF2.6237294180799999
aF2.5485871739000001
asg21
F3593.4768066409997
sa(dp316
g2
S'38:40:23.95'
p317
sg4
F0.72185299999999997
sg5
I-51
sg6
I8
sg7
S'2006-06-21'
p318
sg9
S'combibynight_medcoeff1_2006-06-21'
p319
sg11
F1.0
sg12
S'66:53:47.07'
p320
sg14
F5.2999999999999998
sg15
F2453908.254282
sg16
F2593.0
sg17
F0.26600000000000001
sg18
F1440.0
sg19
(lp321
F2.5348475641700001
aF2.7797938175299999
aF2.6590978504799998
aF2.5820782985399999
aF2.43036412862
aF2.7884812263900001
aF2.7117446576800002
aF2.5776524855499998
asg21
F2578.5827331549999
sa(dp322
g2
S'38:40:23.95'
p323
sg4
F0.72185299999999997
sg5
I-52
sg6
I10
sg7
S'2006-06-26'
p324
sg9
S'combibynight_medcoeff1_2006-06-26'
p325
sg11
F1.0
sg12
S'66:53:47.07'
p326
sg14
F5.2999999999999998
sg15
F2453913.2037729998
sg16
F2593.0
sg17
F0.26600000000000001
sg18
F1800.0
sg19
(lp327
F3.1278228295099999
aF3.0452188147200001
aF3.52975140101
aF3.0214494028600001
aF3.46222441332
aF2.9429659478399999
aF3.1553253666500001
aF3.1454890667600002
aF2.6786488262899999
aF2.82911960235
asg21
F4228.8698425289995
sa(dp328
g2
S'38:40:23.95'
p329
sg4
F0.72185299999999997
sg5
I-53
sg6
I9
sg7
S'2006-06-30'
p330
sg9
S'combibynight_medcoeff1_2006-06-30'
p331
sg11
F1.0
sg12
S'66:53:47.07'
p332
sg14
F5.2999999999999998
sg15
F2453917.21691
sg16
F2593.0
sg17
F0.26600000000000001
sg18
F1620.0
sg19
(lp333
F2.5547435592199998
aF2.9610884047199999
aF2.74043609275
aF2.76385622911
aF3.6176281960400001
aF2.6949293936299998
aF2.79646933148
aF2.9688189808600001
aF3.0363954935000002
asg21
F4355.9687194819999
sa(dp334
g2
S'38:40:23.95'
p335
sg4
F0.72185299999999997
sg5
I-54
sg6
I10
sg7
S'2006-07-04'
p336
sg9
S'combibynight_medcoeff1_2006-07-04'
p337
sg11
F1.0
sg12
S'66:53:47.07'
p338
sg14
F5.2999999999999998
sg15
F2453921.1792359999
sg16
F2593.0
sg17
F0.26600000000000001
sg18
F1800.0
sg19
(lp339
F2.8896156204299999
aF2.8346036249500002
aF3.0635237169099998
aF3.5821309005400002
aF2.6045936893300001
aF2.8423035303900002
aF2.84471605391
aF3.1305683586600002
aF2.8258763577799999
aF3.02726216181
asg21
F12056.893920909997
sa(dp340
g2
S'38:40:23.95'
p341
sg4
F0.72185299999999997
sg5
I-55
sg6
I9
sg7
S'2006-07-16'
p342
sg9
S'combibynight_medcoeff1_2006-07-16'
p343
sg11
F1.0
sg12
S'66:53:47.07'
p344
sg14
F5.2999999999999998
sg15
F2453933.1775929998
sg16
F2593.0
sg17
F0.26600000000000001
sg18
F1620.0
sg19
(lp345
F2.7315883811599999
aF2.7160810143199998
aF2.5897470892199999
aF2.64015504761
aF3.3699172173599998
aF2.63105760937
aF2.7401105614699999
aF2.4937074196100002
aF2.75906305551
asg21
F4054.1319274890002
sa(dp346
g2
S'38:40:23.95'
p347
sg4
F0.72185299999999997
sg5
I-56
sg6
I1
sg7
S'2008-05-04'
p348
sg9
S'combibynight_medcoeff1_2008-05-04'
p349
sg11
F1.0
sg12
S'66:53:47.07'
p350
sg14
F5.2999999999999998
sg15
F2454591.2971410002
sg16
F2593.0
sg17
F0.26600000000000001
sg18
F300.0
sg19
(lp351
F9.3046582705599992
asg21
F207.81036377000001
sa(dp352
g2
S'38:40:23.95'
p353
sg4
F0.72185299999999997
sg5
I-57
sg6
I6
sg7
S'2008-05-06'
p354
sg9
S'combibynight_medcoeff1_2008-05-06'
p355
sg11
F1.0
sg12
S'66:53:47.07'
p356
sg14
F5.2999999999999998
sg15
F2454593.3256939999
sg16
F2593.0
sg17
F0.26600000000000001
sg18
F1800.0
sg19
(lp357
F3.68307283574
aF3.70226839574
aF3.80154314846
aF3.91246470375
aF4.1145446903399998
aF5.1847715016700002
asg21
F1348.34539795
sa(dp358
g2
S'38:40:23.95'
p359
sg4
F0.72185299999999997
sg5
I-58
sg6
I7
sg7
S'2008-05-09'
p360
sg9
S'combibynight_medcoeff1_2008-05-09'
p361
sg11
F1.0
sg12
S'66:53:47.07'
p362
sg14
F5.2999999999999998
sg15
F2454596.3540969999
sg16
F2593.0
sg17
F0.26600000000000001
sg18
F2100.0
sg19
(lp363
F4.0468840853600003
aF5.6475258720900001
aF3.9392492092600002
aF4.5171843605299999
aF4.0645652950100004
aF5.0272576545399996
aF5.3449939105800004
asg21
F2041.1120300309999
sa(dp364
g2
S'38:40:23.95'
p365
sg4
F0.72185299999999997
sg5
I-59
sg6
I6
sg7
S'2008-05-16'
p366
sg9
S'combibynight_medcoeff1_2008-05-16'
p367
sg11
F1.0
sg12
S'66:53:47.07'
p368
sg14
F5.2999999999999998
sg15
F2454603.3398259999
sg16
F2593.0
sg17
F0.26600000000000001
sg18
F1800.0
sg19
(lp369
F3.4393358648699999
aF3.50120270651
aF3.5025193472399998
aF3.5258231867999998
aF4.2699284522600003
aF3.3249432039700002
asg21
F7014.0057373100008
sa(dp370
g2
S'38:40:23.95'
p371
sg4
F0.72185299999999997
sg5
I-60
sg6
I6
sg7
S'2008-05-19'
p372
sg9
S'combibynight_medcoeff1_2008-05-19'
p373
sg11
F1.0
sg12
S'66:53:47.07'
p374
sg14
F5.2999999999999998
sg15
F2454606.3146060002
sg16
F2593.0
sg17
F0.26600000000000001
sg18
F1800.0
sg19
(lp375
F3.4589555673699999
aF3.1686497807
aF3.1188825473100001
aF3.14506576506
aF3.5129074627099999
aF3.2197206674199998
asg21
F10978.213745110001
sa(dp376
g2
S'38:40:23.95'
p377
sg4
F0.72185299999999997
sg5
I-61
sg6
I6
sg7
S'2008-05-23'
p378
sg9
S'combibynight_medcoeff1_2008-05-23'
p379
sg11
F1.0
sg12
S'66:53:47.07'
p380
sg14
F5.2999999999999998
sg15
F2454610.351458
sg16
F2593.0
sg17
F0.26600000000000001
sg18
F1800.0
sg19
(lp381
F3.6606935916599999
aF3.9575872321299999
aF4.0581389440200004
aF3.8408567904200002
aF3.91746335313
aF3.89369785373
asg21
F6155.6027221679997
sa(dp382
g2
S'38:40:23.95'
p383
sg4
F0.72185299999999997
sg5
I-62
sg6
I6
sg7
S'2008-05-27'
p384
sg9
S'combibynight_medcoeff1_2008-05-27'
p385
sg11
F1.0
sg12
S'66:53:47.07'
p386
sg14
F5.2999999999999998
sg15
F2454614.271377
sg16
F2593.0
sg17
F0.26600000000000001
sg18
F1800.0
sg19
(lp387
F3.4189950716099999
aF3.67776595051
aF3.4443628522999998
aF3.51513709471
aF3.6508807535200001
aF3.6058735901299999
asg21
F1211.9936218270002
sa(dp388
g2
S'38:40:23.95'
p389
sg4
F0.72185299999999997
sg5
I-63
sg6
I3
sg7
S'2008-05-31'
p390
sg9
S'combibynight_medcoeff1_2008-05-31'
p391
sg11
F1.0
sg12
S'66:53:47.07'
p392
sg14
F5.2999999999999998
sg15
F2454618.3284610002
sg16
F2593.0
sg17
F0.26600000000000001
sg18
F900.0
sg19
(lp393
F4.2337632544400003
aF4.3562956991600004
aF4.3912090701200004
asg21
F742.08889770400003
sa(dp394
g2
S'38:40:23.95'
p395
sg4
F0.72185299999999997
sg5
I-64
sg6
I2
sg7
S'2008-06-05'
p396
sg9
S'combibynight_medcoeff1_2008-06-05'
p397
sg11
F1.0
sg12
S'66:53:47.07'
p398
sg14
F5.2999999999999998
sg15
F2454623.3123260001
sg16
F2593.0
sg17
F0.26600000000000001
sg18
F600.0
sg19
(lp399
F5.8473845454199997
aF5.5079527684
asg21
F409.59875488299997
sa(dp400
g2
S'38:40:23.95'
p401
sg4
F0.72185299999999997
sg5
I-65
sg6
I6
sg7
S'2008-06-08'
p402
sg9
S'combibynight_medcoeff1_2008-06-08'
p403
sg11
F1.0
sg12
S'66:53:47.07'
p404
sg14
F5.2999999999999998
sg15
F2454626.280243
sg16
F2593.0
sg17
F0.26600000000000001
sg18
F1800.0
sg19
(lp405
F4.1112973554599996
aF4.1202603705699996
aF4.0190396053499997
aF4.0174981667100003
aF4.0802465234299996
aF4.0584464200400001
asg21
F1582.2281646729998
sa(dp406
g2
S'38:40:23.95'
p407
sg4
F0.72185299999999997
sg5
I-66
sg6
I6
sg7
S'2008-06-11'
p408
sg9
S'combibynight_medcoeff1_2008-06-11'
p409
sg11
F1.0
sg12
S'66:53:47.07'
p410
sg14
F5.2999999999999998
sg15
F2454629.2469910001
sg16
F2593.0
sg17
F0.26600000000000001
sg18
F1800.0
sg19
(lp411
F4.0103055942300001
aF3.9855452648999998
aF3.9707819685899999
aF4.2571318822200004
aF3.9338108835400001
aF4.0133380950599999
asg21
F5423.8375244140007
sa(dp412
g2
S'38:40:23.95'
p413
sg4
F0.72185299999999997
sg5
I-67
sg6
I10
sg7
S'2008-06-13'
p414
sg9
S'combibynight_medcoeff1_2008-06-13'
p415
sg11
F1.0
sg12
S'66:53:47.07'
p416
sg14
F5.2999999999999998
sg15
F2454631.3036110001
sg16
F2593.0
sg17
F0.26600000000000001
sg18
F1800.0
sg19
(lp417
F9.3050602926400003
aF8.4592118925800008
aF8.4289482471999992
aF7.9608185573699997
aF8.3684280508499995
aF8.4150199791000002
aF8.1499865068300004
aF7.7321608468100003
aF7.75847952189
aF7.8823480480199999
asg21
F9498.7789306639988
sa(dp418
g2
S'38:40:23.95'
p419
sg4
F0.72185299999999997
sg5
I-68
sg6
I4
sg7
S'2008-06-17'
p420
sg9
S'combibynight_medcoeff1_2008-06-17'
p421
sg11
F1.0
sg12
S'66:53:47.07'
p422
sg14
F5.2999999999999998
sg15
F2454635.2639350002
sg16
F2593.0
sg17
F0.26600000000000001
sg18
F720.0
sg19
(lp423
F6.9798029618699999
aF7.0879389927299998
aF6.6031232489400002
aF6.9021556833000002
asg21
F4034.5862426720005
sa(dp424
g2
S'38:40:23.95'
p425
sg4
F0.72185299999999997
sg5
I-69
sg6
I5
sg7
S'2008-06-26'
p426
sg9
S'combibynight_medcoeff1_2008-06-26'
p427
sg11
F1.0
sg12
S'66:53:47.07'
p428
sg14
F5.2999999999999998
sg15
F2454644.2504170001
sg16
F2593.0
sg17
F0.26600000000000001
sg18
F1500.0
sg19
(lp429
F4.60638591821
aF4.6621694639599998
aF4.8973974502599997
aF4.71503023016
aF4.8226867349999996
asg21
F1479.727386475
sa(dp430
g2
S'38:40:23.95'
p431
sg4
F0.72185299999999997
sg5
I-70
sg6
I5
sg7
S'2008-06-28'
p432
sg9
S'combibynight_medcoeff1_2008-06-28'
p433
sg11
F1.0
sg12
S'66:53:47.07'
p434
sg14
F5.2999999999999998
sg15
F2454646.2398609999
sg16
F2593.0
sg17
F0.26600000000000001
sg18
F1500.0
sg19
(lp435
F3.8868951951300001
aF3.8578296927500002
aF3.8919810250400002
aF3.9181418042299998
aF3.7950792723800002
asg21
F1432.4053649910002
sa(dp436
g2
S'38:40:23.95'
p437
sg4
F0.72185299999999997
sg5
I-71
sg6
I6
sg7
S'2008-06-30'
p438
sg9
S'combibynight_medcoeff1_2008-06-30'
p439
sg11
F1.0
sg12
S'66:53:47.07'
p440
sg14
F5.2999999999999998
sg15
F2454648.2301500002
sg16
F2593.0
sg17
F0.26600000000000001
sg18
F1800.0
sg19
(lp441
F4.15290764481
aF4.1088938916000002
aF4.1434117129999999
aF4.1907543111800001
aF3.74576803781
aF4.1754796140400003
asg21
F1261.135116578
sa(dp442
g2
S'38:40:23.95'
p443
sg4
F0.72185299999999997
sg5
I-72
sg6
I6
sg7
S'2008-07-03'
p444
sg9
S'combibynight_medcoeff1_2008-07-03'
p445
sg11
F1.0
sg12
S'66:53:47.07'
p446
sg14
F5.2999999999999998
sg15
F2454651.2186810002
sg16
F2593.0
sg17
F0.26600000000000001
sg18
F1800.0
sg19
(lp447
F5.64827256419
aF5.1788552339400002
aF5.6241245721900004
aF5.6731300015899997
aF5.1019767550399999
aF5.6839499233200002
asg21
F1720.4132690440001
sa(dp448
g2
S'38:40:23.95'
p449
sg4
F0.72185299999999997
sg5
I-73
sg6
I6
sg7
S'2008-07-06'
p450
sg9
S'combibynight_medcoeff1_2008-07-06'
p451
sg11
F1.0
sg12
S'66:53:47.07'
p452
sg14
F5.2999999999999998
sg15
F2454654.2112850002
sg16
F2593.0
sg17
F0.26600000000000001
sg18
F1800.0
sg19
(lp453
F5.7200977383799998
aF5.94292358581
aF5.8871125063500003
aF5.9989105227900001
aF6.1204916542300003
aF6.0551890157999999
asg21
F1526.2440185539999
sa(dp454
g2
S'38:40:23.95'
p455
sg4
F0.72185299999999997
sg5
I-74
sg6
I7
sg7
S'2008-07-10'
p456
sg9
S'combibynight_medcoeff1_2008-07-10'
p457
sg11
F1.0
sg12
S'66:53:47.07'
p458
sg14
F5.2999999999999998
sg15
F2454658.2555900002
sg16
F2593.0
sg17
F0.26600000000000001
sg18
F1500.0
sg19
(lp459
F4.5796294085799998
aF4.6731571685500004
aF7.4528111811100004
aF7.7520738006799998
aF7.9974247219599999
aF8.1980021248000003
aF8.7155239455900002
asg21
F2814.5215148929997
sa(dp460
g2
S'38:40:23.95'
p461
sg4
F0.72185299999999997
sg5
I-75
sg6
I5
sg7
S'2008-07-13'
p462
sg9
S'combibynight_medcoeff1_2008-07-13'
p463
sg11
F1.0
sg12
S'66:53:47.07'
p464
sg14
F5.2999999999999998
sg15
F2454661.2597110001
sg16
F2593.0
sg17
F0.26600000000000001
sg18
F1500.0
sg19
(lp465
F4.5297550506400004
aF4.5585329466399998
aF4.6075518750500004
aF6.1744043254200003
aF7.7413183922900002
asg21
F6135.5864868199997
sa(dp466
g2
S'38:40:23.95'
p467
sg4
F0.72185299999999997
sg5
I-76
sg6
I5
sg7
S'2008-07-20'
p468
sg9
S'combibynight_medcoeff1_2008-07-20'
p469
sg11
F1.0
sg12
S'66:53:47.07'
p470
sg14
F5.2999999999999998
sg15
F2454668.2302779998
sg16
F2593.0
sg17
F0.26600000000000001
sg18
F900.0
sg19
(lp471
F7.42589065684
aF7.4355781374100003
aF8.1175355008699999
aF8.0292002446200001
aF7.7928484525600004
asg21
F4905.208862298
sa(dp472
g2
S'38:40:23.95'
p473
sg4
F0.72185299999999997
sg5
I-77
sg6
I15
sg7
S'2008-07-23'
p474
sg9
S'combibynight_medcoeff1_2008-07-23'
p475
sg11
F1.0
sg12
S'66:53:47.07'
p476
sg14
F5.2999999999999998
sg15
F2454671.213796
sg16
F2593.0
sg17
F0.26600000000000001
sg18
F2700.0
sg19
(lp477
F7.1712054855299998
aF7.2064282585999999
aF7.22146495395
aF7.3537914721600002
aF7.3498967626600002
aF7.2825296712199998
aF7.1493919969600004
aF7.0909420610399998
aF7.3327912290599997
aF7.3036297181699998
aF7.1356875528500003
aF7.2365636536400002
aF7.5101175628799997
aF8.2539452495700001
aF9.3394983538399998
asg21
F4083.1085815430001
sa(dp478
g2
S'38:40:23.95'
p479
sg4
F0.72185299999999997
sg5
I-78
sg6
I19
sg7
S'2008-07-26'
p480
sg9
S'combibynight_medcoeff1_2008-07-26'
p481
sg11
F1.0
sg12
S'66:53:47.07'
p482
sg14
F5.2999999999999998
sg15
F2454674.200683
sg16
F2593.0
sg17
F0.26600000000000001
sg18
F1500.0
sg19
(lp483
F7.5033916856199996
aF7.7222211629900004
aF7.6425345834299998
aF22.316872783200001
aF22.2386957153
aF23.6486862623
aF23.716222721299999
aF21.075869646600001
aF20.897596098299999
aF22.522994854699999
aF22.428130610299998
aF20.492053573700002
aF21.109762780899999
aF23.5653284138
aF21.2726352482
aF21.539707206500001
aF22.8027639357
aF22.033846325599999
aF21.5831325029
asg21
F1344.3099746706998
sa(dp484
g2
S'38:40:23.95'
p485
sg4
F0.72185299999999997
sg5
I-79
sg6
I9
sg7
S'2008-07-31'
p486
sg9
S'combibynight_medcoeff1_2008-07-31'
p487
sg11
F1.0
sg12
S'66:53:47.07'
p488
sg14
F5.2999999999999998
sg15
F2454679.1653240002
sg16
F2593.0
sg17
F0.26600000000000001
sg18
F1620.0
sg19
(lp489
F7.1102156340800002
aF7.2592941929199997
aF7.3076350460099997
aF7.8233373896299998
aF7.5055338986800004
aF8.0264402760899998
aF7.8444828102999997
aF7.8989094225900001
aF7.6360026757300004
asg21
F2453.003494263
sa(dp490
g2
S'38:40:23.95'
p491
sg4
F0.72185299999999997
sg5
I-80
sg6
I11
sg7
S'2008-08-04'
p492
sg9
S'combibynight_medcoeff1_2008-08-04'
p493
sg11
F1.0
sg12
S'66:53:47.07'
p494
sg14
F5.2999999999999998
sg15
F2454683.1640969999
sg16
F2593.0
sg17
F0.26600000000000001
sg18
F2100.0
sg19
(lp495
F4.4287479434300003
aF7.3149885039999996
aF7.3481508208499999
aF7.4310249685700001
aF7.4792629953800001
aF7.5023576684000002
aF7.7975413227699999
aF7.5536966304900002
aF7.6039845982400003
aF7.8307551915299998
aF7.8052296348199999
asg21
F2685.3364868149997
sa(dp496
g2
S'38:40:23.95'
p497
sg4
F0.72185299999999997
sg5
I-81
sg6
I5
sg7
S'2008-08-08'
p498
sg9
S'combibynight_medcoeff1_2008-08-08'
p499
sg11
F1.0
sg12
S'66:53:47.07'
p500
sg14
F5.2999999999999998
sg15
F2454687.1638310002
sg16
F2593.0
sg17
F0.26600000000000001
sg18
F900.0
sg19
(lp501
F7.1282640442099998
aF7.3863918712899999
aF7.7410353215500001
aF7.3572703498500003
aF7.4791732273299996
asg21
F1744.0264587410002
sa(dp502
g2
S'38:40:23.95'
p503
sg4
F0.72185299999999997
sg5
I-82
sg6
I5
sg7
S'2008-08-15'
p504
sg9
S'combibynight_medcoeff1_2008-08-15'
p505
sg11
F1.0
sg12
S'66:53:47.07'
p506
sg14
F5.2999999999999998
sg15
F2454694.1486809999
sg16
F2593.0
sg17
F0.26600000000000001
sg18
F900.0
sg19
(lp507
F10.1617492502
aF9.7327548531900003
aF9.4756177027599993
aF8.7855280785200005
aF10.495709296699999
asg21
F9012.19592285
sa(dp508
g2
S'38:40:23.95'
p509
sg4
F0.72185299999999997
sg5
I-83
sg6
I3
sg7
S'2008-08-19'
p510
sg9
S'combibynight_medcoeff1_2008-08-19'
p511
sg11
F1.0
sg12
S'66:53:47.07'
p512
sg14
F5.2999999999999998
sg15
F2454698.1443630001
sg16
F2593.0
sg17
F0.26600000000000001
sg18
F540.0
sg19
(lp513
F8.3184369105799991
aF8.61350073935
aF8.9685508247100003
asg21
F2184.737670899
sa(dp514
g2
S'38:40:23.95'
p515
sg4
F0.72185299999999997
sg5
I-84
sg6
I8
sg7
S'2008-08-27'
p516
sg9
S'combibynight_medcoeff1_2008-08-27'
p517
sg11
F1.0
sg12
S'66:53:47.07'
p518
sg14
F5.2999999999999998
sg15
F2454706.1598149999
sg16
F2593.0
sg17
F0.26600000000000001
sg18
F480.0
sg19
(lp519
F43.477734655200003
aF49.0408887878
aF49.850442858900003
aF68.815885253700003
aF66.876189358399998
aF82.069825254600005
aF81.805689686899996
aF102.03894803199999
asg21
F328.96678161610004
sa.